target datalayout = "e-m:e-p270:32:32-p271:32:32-p272:64:64-i64:64-i128:128-f80:128-n8:16:32:64-S128"
target triple = "x86_64-pc-linux-gnu"

%struct.hashmap = type { ptr, ptr, ptr, i32, i32, i32, i32, i8 }
%struct.hashmap_entry = type { ptr, i32 }

; Function Attrs: nounwind uwtable
define internal void @alloc_table(ptr noundef %0, i32 noundef %1) #0 {
  %3 = alloca ptr, align 8
  %4 = alloca i32, align 4
  store ptr %0, ptr %3, align 8, !tbaa !21
  store i32 %1, ptr %4, align 4, !tbaa !9
  %5 = load i32, ptr %4, align 4, !tbaa !9
  %6 = load ptr, ptr %3, align 8, !tbaa !21
  %7 = getelementptr inbounds nuw %struct.hashmap, ptr %6, i32 0, i32 4
  store i32 %5, ptr %7, align 4, !tbaa !23
  %8 = load i32, ptr %4, align 4, !tbaa !9
  %9 = zext i32 %8 to i64
  %10 = call ptr @xcalloc(i64 noundef %9, i64 noundef 8)
  %11 = load ptr, ptr %3, align 8, !tbaa !21
  %12 = getelementptr inbounds nuw %struct.hashmap, ptr %11, i32 0, i32 0
  store ptr %10, ptr %12, align 8, !tbaa !31
  %13 = load i32, ptr %4, align 4, !tbaa !9
  %14 = zext i32 %13 to i64
  %15 = mul i64 %14, 80
  %16 = udiv i64 %15, 100
  %17 = trunc i64 %16 to i32
  %18 = load ptr, ptr %3, align 8, !tbaa !21
  %19 = getelementptr inbounds nuw %struct.hashmap, ptr %18, i32 0, i32 5
  store i32 %17, ptr %19, align 8, !tbaa !32
  %20 = load i32, ptr %4, align 4, !tbaa !9
  %21 = icmp ule i32 %20, 64
  br i1 %21, label %22, label %25

22:                                               ; preds = %2
  %23 = load ptr, ptr %3, align 8, !tbaa !21
  %24 = getelementptr inbounds nuw %struct.hashmap, ptr %23, i32 0, i32 6
  store i32 0, ptr %24, align 4, !tbaa !33
  br label %32

25:                                               ; preds = %2
  %26 = load ptr, ptr %3, align 8, !tbaa !21
  %27 = getelementptr inbounds nuw %struct.hashmap, ptr %26, i32 0, i32 5
  %28 = load i32, ptr %27, align 8, !tbaa !32
  %29 = udiv i32 %28, 5
  %30 = load ptr, ptr %3, align 8, !tbaa !21
  %31 = getelementptr inbounds nuw %struct.hashmap, ptr %30, i32 0, i32 6
  store i32 %29, ptr %31, align 4, !tbaa !33
  br label %32

32:                                               ; preds = %25, %22
  ret void
}

; Function Attrs: inlinehint nounwind uwtable
define internal i32 @entry_equals(ptr noundef %0, ptr noundef %1, ptr noundef %2, ptr noundef %3) #4 {
  %5 = alloca ptr, align 8
  %6 = alloca ptr, align 8
  %7 = alloca ptr, align 8
  %8 = alloca ptr, align 8
  store ptr %0, ptr %5, align 8, !tbaa !21
  store ptr %1, ptr %6, align 8, !tbaa !29
  store ptr %2, ptr %7, align 8, !tbaa !29
  store ptr %3, ptr %8, align 8, !tbaa !15
  %9 = load ptr, ptr %6, align 8, !tbaa !29
  %10 = load ptr, ptr %7, align 8, !tbaa !29
  %11 = icmp eq ptr %9, %10
  br i1 %11, label %35, label %12

12:                                               ; preds = %4
  %13 = load ptr, ptr %6, align 8, !tbaa !29
  %14 = getelementptr inbounds nuw %struct.hashmap_entry, ptr %13, i32 0, i32 1
  %15 = load i32, ptr %14, align 8, !tbaa !41
  %16 = load ptr, ptr %7, align 8, !tbaa !29
  %17 = getelementptr inbounds nuw %struct.hashmap_entry, ptr %16, i32 0, i32 1
  %18 = load i32, ptr %17, align 8, !tbaa !41
  %19 = icmp eq i32 %15, %18
  br i1 %19, label %20, label %33

20:                                               ; preds = %12
  %21 = load ptr, ptr %5, align 8, !tbaa !21
  %22 = getelementptr inbounds nuw %struct.hashmap, ptr %21, i32 0, i32 1
  %23 = load ptr, ptr %22, align 8, !tbaa !26
  %24 = load ptr, ptr %5, align 8, !tbaa !21
  %25 = getelementptr inbounds nuw %struct.hashmap, ptr %24, i32 0, i32 2
  %26 = load ptr, ptr %25, align 8, !tbaa !27
  %27 = load ptr, ptr %6, align 8, !tbaa !29
  %28 = load ptr, ptr %7, align 8, !tbaa !29
  %29 = load ptr, ptr %8, align 8, !tbaa !15
  %30 = call i32 %23(ptr noundef %26, ptr noundef %27, ptr noundef %28, ptr noundef %29)
  %31 = icmp ne i32 %30, 0
  %32 = xor i1 %31, true
  br label %33

33:                                               ; preds = %20, %12
  %34 = phi i1 [ false, %12 ], [ %32, %20 ]
  br label %35

35:                                               ; preds = %33, %4
  %36 = phi i1 [ true, %4 ], [ %34, %33 ]
  %37 = zext i1 %36 to i32
  ret i32 %37
}

; Function Attrs: inlinehint nounwind uwtable
define internal i32 @bucket(ptr noundef %0, ptr noundef %1) #4 {
  %3 = alloca ptr, align 8
  %4 = alloca ptr, align 8
  store ptr %0, ptr %3, align 8, !tbaa !21
  store ptr %1, ptr %4, align 8, !tbaa !29
  %5 = load ptr, ptr %4, align 8, !tbaa !29
  %6 = getelementptr inbounds nuw %struct.hashmap_entry, ptr %5, i32 0, i32 1
  %7 = load i32, ptr %6, align 8, !tbaa !41
  %8 = load ptr, ptr %3, align 8, !tbaa !21
  %9 = getelementptr inbounds nuw %struct.hashmap, ptr %8, i32 0, i32 4
  %10 = load i32, ptr %9, align 4, !tbaa !23
  %11 = sub i32 %10, 1
  %12 = and i32 %7, %11
  ret i32 %12
}

; Function Attrs: nounwind uwtable
define internal void @rehash(ptr noundef %0, i32 noundef %1) #0 {
  %3 = alloca ptr, align 8
  %4 = alloca i32, align 4
  %5 = alloca i32, align 4
  %6 = alloca i32, align 4
  %7 = alloca ptr, align 8
  %8 = alloca ptr, align 8
  %9 = alloca ptr, align 8
  %10 = alloca i32, align 4
  store ptr %0, ptr %3, align 8, !tbaa !21
  store i32 %1, ptr %4, align 4, !tbaa !9
  call void @llvm.lifetime.start.p0(i64 4, ptr %5) #9
  call void @llvm.lifetime.start.p0(i64 4, ptr %6) #9
  %11 = load ptr, ptr %3, align 8, !tbaa !21
  %12 = getelementptr inbounds nuw %struct.hashmap, ptr %11, i32 0, i32 4
  %13 = load i32, ptr %12, align 4, !tbaa !23
  store i32 %13, ptr %6, align 4, !tbaa !9
  call void @llvm.lifetime.start.p0(i64 8, ptr %7) #9
  %14 = load ptr, ptr %3, align 8, !tbaa !21
  %15 = getelementptr inbounds nuw %struct.hashmap, ptr %14, i32 0, i32 0
  %16 = load ptr, ptr %15, align 8, !tbaa !31
  store ptr %16, ptr %7, align 8, !tbaa !36
  %17 = load ptr, ptr %3, align 8, !tbaa !21
  %18 = load i32, ptr %4, align 4, !tbaa !9
  call void @alloc_table(ptr noundef %17, i32 noundef %18)
  store i32 0, ptr %5, align 4, !tbaa !9
  br label %19

19:                                               ; preds = %57, %2
  %20 = load i32, ptr %5, align 4, !tbaa !9
  %21 = load i32, ptr %6, align 4, !tbaa !9
  %22 = icmp ult i32 %20, %21
  br i1 %22, label %23, label %60

23:                                               ; preds = %19
  call void @llvm.lifetime.start.p0(i64 8, ptr %8) #9
  %24 = load ptr, ptr %7, align 8, !tbaa !36
  %25 = load i32, ptr %5, align 4, !tbaa !9
  %26 = zext i32 %25 to i64
  %27 = getelementptr inbounds nuw ptr, ptr %24, i64 %26
  %28 = load ptr, ptr %27, align 8, !tbaa !29
  store ptr %28, ptr %8, align 8, !tbaa !29
  br label %29

29:                                               ; preds = %32, %23
  %30 = load ptr, ptr %8, align 8, !tbaa !29
  %31 = icmp ne ptr %30, null
  br i1 %31, label %32, label %56

32:                                               ; preds = %29
  call void @llvm.lifetime.start.p0(i64 8, ptr %9) #9
  %33 = load ptr, ptr %8, align 8, !tbaa !29
  %34 = getelementptr inbounds nuw %struct.hashmap_entry, ptr %33, i32 0, i32 0
  %35 = load ptr, ptr %34, align 8, !tbaa !38
  store ptr %35, ptr %9, align 8, !tbaa !29
  call void @llvm.lifetime.start.p0(i64 4, ptr %10) #9
  %36 = load ptr, ptr %3, align 8, !tbaa !21
  %37 = load ptr, ptr %8, align 8, !tbaa !29
  %38 = call i32 @bucket(ptr noundef %36, ptr noundef %37)
  store i32 %38, ptr %10, align 4, !tbaa !9
  %39 = load ptr, ptr %3, align 8, !tbaa !21
  %40 = getelementptr inbounds nuw %struct.hashmap, ptr %39, i32 0, i32 0
  %41 = load ptr, ptr %40, align 8, !tbaa !31
  %42 = load i32, ptr %10, align 4, !tbaa !9
  %43 = zext i32 %42 to i64
  %44 = getelementptr inbounds nuw ptr, ptr %41, i64 %43
  %45 = load ptr, ptr %44, align 8, !tbaa !29
  %46 = load ptr, ptr %8, align 8, !tbaa !29
  %47 = getelementptr inbounds nuw %struct.hashmap_entry, ptr %46, i32 0, i32 0
  store ptr %45, ptr %47, align 8, !tbaa !38
  %48 = load ptr, ptr %8, align 8, !tbaa !29
  %49 = load ptr, ptr %3, align 8, !tbaa !21
  %50 = getelementptr inbounds nuw %struct.hashmap, ptr %49, i32 0, i32 0
  %51 = load ptr, ptr %50, align 8, !tbaa !31
  %52 = load i32, ptr %10, align 4, !tbaa !9
  %53 = zext i32 %52 to i64
  %54 = getelementptr inbounds nuw ptr, ptr %51, i64 %53
  store ptr %48, ptr %54, align 8, !tbaa !29
  %55 = load ptr, ptr %9, align 8, !tbaa !29
  store ptr %55, ptr %8, align 8, !tbaa !29
  call void @llvm.lifetime.end.p0(i64 4, ptr %10) #9
  call void @llvm.lifetime.end.p0(i64 8, ptr %9) #9
  br label %29, !llvm.loop !42

56:                                               ; preds = %29
  call void @llvm.lifetime.end.p0(i64 8, ptr %8) #9
  br label %57

57:                                               ; preds = %56
  %58 = load i32, ptr %5, align 4, !tbaa !9
  %59 = add i32 %58, 1
  store i32 %59, ptr %5, align 4, !tbaa !9
  br label %19, !llvm.loop !43

60:                                               ; preds = %19
  %61 = load ptr, ptr %7, align 8, !tbaa !36
  call void @free(ptr noundef %61) #9
  call void @llvm.lifetime.end.p0(i64 8, ptr %7) #9
  call void @llvm.lifetime.end.p0(i64 4, ptr %6) #9
  call void @llvm.lifetime.end.p0(i64 4, ptr %5) #9
  ret void
}

; Function Attrs: inlinehint nounwind uwtable
define internal ptr @find_entry_ptr(ptr noundef %0, ptr noundef %1, ptr noundef %2) #4 {
  %4 = alloca ptr, align 8
  %5 = alloca ptr, align 8
  %6 = alloca ptr, align 8
  %7 = alloca ptr, align 8
  store ptr %0, ptr %4, align 8, !tbaa !21
  store ptr %1, ptr %5, align 8, !tbaa !29
  store ptr %2, ptr %6, align 8, !tbaa !15
  call void @llvm.lifetime.start.p0(i64 8, ptr %7) #9
  %8 = load ptr, ptr %4, align 8, !tbaa !21
  %9 = getelementptr inbounds nuw %struct.hashmap, ptr %8, i32 0, i32 0
  %10 = load ptr, ptr %9, align 8, !tbaa !31
  %11 = load ptr, ptr %4, align 8, !tbaa !21
  %12 = load ptr, ptr %5, align 8, !tbaa !29
  %13 = call i32 @bucket(ptr noundef %11, ptr noundef %12)
  %14 = zext i32 %13 to i64
  %15 = getelementptr inbounds nuw ptr, ptr %10, i64 %14
  store ptr %15, ptr %7, align 8, !tbaa !36
  br label %16

16:                                               ; preds = %31, %3
  %17 = load ptr, ptr %7, align 8, !tbaa !36
  %18 = load ptr, ptr %17, align 8, !tbaa !29
  %19 = icmp ne ptr %18, null
  br i1 %19, label %20, label %29

20:                                               ; preds = %16
  %21 = load ptr, ptr %4, align 8, !tbaa !21
  %22 = load ptr, ptr %7, align 8, !tbaa !36
  %23 = load ptr, ptr %22, align 8, !tbaa !29
  %24 = load ptr, ptr %5, align 8, !tbaa !29
  %25 = load ptr, ptr %6, align 8, !tbaa !15
  %26 = call i32 @entry_equals(ptr noundef %21, ptr noundef %23, ptr noundef %24, ptr noundef %25)
  %27 = icmp ne i32 %26, 0
  %28 = xor i1 %27, true
  br label %29

29:                                               ; preds = %20, %16
  %30 = phi i1 [ false, %16 ], [ %28, %20 ]
  br i1 %30, label %31, label %35

31:                                               ; preds = %29
  %32 = load ptr, ptr %7, align 8, !tbaa !36
  %33 = load ptr, ptr %32, align 8, !tbaa !29
  %34 = getelementptr inbounds nuw %struct.hashmap_entry, ptr %33, i32 0, i32 0
  store ptr %34, ptr %7, align 8, !tbaa !36
  br label %16, !llvm.loop !37

35:                                               ; preds = %29
  %36 = load ptr, ptr %7, align 8, !tbaa !36
  call void @llvm.lifetime.end.p0(i64 8, ptr %7) #9
  ret ptr %36
}

; Function Attrs: nounwind uwtable
define dso_local ptr @hashmap_remove(ptr noundef %0, ptr noundef %1, ptr noundef %2) #0 {
  %4 = alloca ptr, align 8
  %5 = alloca ptr, align 8
  %6 = alloca ptr, align 8
  %7 = alloca ptr, align 8
  %8 = alloca ptr, align 8
  %9 = alloca ptr, align 8
  %10 = alloca i32, align 4
  store ptr %0, ptr %5, align 8, !tbaa !21
  store ptr %1, ptr %6, align 8, !tbaa !29
  store ptr %2, ptr %7, align 8, !tbaa !15
  call void @llvm.lifetime.start.p0(i64 8, ptr %8) #9
  call void @llvm.lifetime.start.p0(i64 8, ptr %9) #9
  %11 = load ptr, ptr %5, align 8, !tbaa !21
  %12 = getelementptr inbounds nuw %struct.hashmap, ptr %11, i32 0, i32 0
  %13 = load ptr, ptr %12, align 8, !tbaa !31
  %14 = icmp ne ptr %13, null
  br i1 %14, label %16, label %15

15:                                               ; preds = %3
  store ptr null, ptr %4, align 8
  store i32 1, ptr %10, align 4
  br label %61

16:                                               ; preds = %3
  %17 = load ptr, ptr %5, align 8, !tbaa !21
  %18 = load ptr, ptr %6, align 8, !tbaa !29
  %19 = load ptr, ptr %7, align 8, !tbaa !15
  %20 = call ptr @find_entry_ptr(ptr noundef %17, ptr noundef %18, ptr noundef %19)
  store ptr %20, ptr %9, align 8, !tbaa !36
  %21 = load ptr, ptr %9, align 8, !tbaa !36
  %22 = load ptr, ptr %21, align 8, !tbaa !29
  %23 = icmp ne ptr %22, null
  br i1 %23, label %25, label %24

24:                                               ; preds = %16
  store ptr null, ptr %4, align 8
  store i32 1, ptr %10, align 4
  br label %61

25:                                               ; preds = %16
  %26 = load ptr, ptr %9, align 8, !tbaa !36
  %27 = load ptr, ptr %26, align 8, !tbaa !29
  store ptr %27, ptr %8, align 8, !tbaa !29
  %28 = load ptr, ptr %8, align 8, !tbaa !29
  %29 = getelementptr inbounds nuw %struct.hashmap_entry, ptr %28, i32 0, i32 0
  %30 = load ptr, ptr %29, align 8, !tbaa !38
  %31 = load ptr, ptr %9, align 8, !tbaa !36
  store ptr %30, ptr %31, align 8, !tbaa !29
  %32 = load ptr, ptr %8, align 8, !tbaa !29
  %33 = getelementptr inbounds nuw %struct.hashmap_entry, ptr %32, i32 0, i32 0
  store ptr null, ptr %33, align 8, !tbaa !38
  %34 = load ptr, ptr %5, align 8, !tbaa !21
  %35 = getelementptr inbounds nuw %struct.hashmap, ptr %34, i32 0, i32 7
  %36 = load i8, ptr %35, align 8
  %37 = and i8 %36, 1
  %38 = zext i8 %37 to i32
  %39 = icmp ne i32 %38, 0
  br i1 %39, label %40, label %59

40:                                               ; preds = %25
  %41 = load ptr, ptr %5, align 8, !tbaa !21
  %42 = getelementptr inbounds nuw %struct.hashmap, ptr %41, i32 0, i32 3
  %43 = load i32, ptr %42, align 8, !tbaa !34
  %44 = add i32 %43, -1
  store i32 %44, ptr %42, align 8, !tbaa !34
  %45 = load ptr, ptr %5, align 8, !tbaa !21
  %46 = getelementptr inbounds nuw %struct.hashmap, ptr %45, i32 0, i32 3
  %47 = load i32, ptr %46, align 8, !tbaa !34
  %48 = load ptr, ptr %5, align 8, !tbaa !21
  %49 = getelementptr inbounds nuw %struct.hashmap, ptr %48, i32 0, i32 6
  %50 = load i32, ptr %49, align 4, !tbaa !33
  %51 = icmp ult i32 %47, %50
  br i1 %51, label %52, label %58

52:                                               ; preds = %40
  %53 = load ptr, ptr %5, align 8, !tbaa !21
  %54 = load ptr, ptr %5, align 8, !tbaa !21
  %55 = getelementptr inbounds nuw %struct.hashmap, ptr %54, i32 0, i32 4
  %56 = load i32, ptr %55, align 4, !tbaa !23
  %57 = lshr i32 %56, 2
  call void @rehash(ptr noundef %53, i32 noundef %57)
  br label %58

58:                                               ; preds = %52, %40
  br label %59

59:                                               ; preds = %58, %25
  %60 = load ptr, ptr %8, align 8, !tbaa !29
  store ptr %60, ptr %4, align 8
  store i32 1, ptr %10, align 4
  br label %61

61:                                               ; preds = %59, %24, %15
  call void @llvm.lifetime.end.p0(i64 8, ptr %9) #9
  call void @llvm.lifetime.end.p0(i64 8, ptr %8) #9
  %62 = load ptr, ptr %4, align 8
  ret ptr %62
}