; Function Attrs: nounwind uwtable
define dso_local ptr @hashmap_remove(ptr noundef captures(none) %0, ptr noundef %1, ptr noundef %2) local_unnamed_addr #3 {
  %4 = load ptr, ptr %0, align 8, !tbaa !21
  %.not = icmp eq ptr %4, null
  br i1 %.not, label %63, label %5

5:                                                ; preds = %3
  %6 = getelementptr i8, ptr %0, i64 28
  %.val.i = load i32, ptr %6, align 4, !tbaa !13
  %7 = getelementptr i8, ptr %1, i64 8
  %.val12.i = load i32, ptr %7, align 8, !tbaa !30
  %8 = add i32 %.val.i, -1
  %9 = and i32 %.val12.i, %8
  %10 = zext i32 %9 to i64
  %11 = getelementptr inbounds nuw ptr, ptr %4, i64 %10
  %12 = getelementptr inbounds nuw i8, ptr %0, i64 8
  %13 = load ptr, ptr %11, align 8, !tbaa !24
  %.not16.i = icmp eq ptr %13, null
  %14 = icmp eq ptr %13, %1
  %or.cond17.i = or i1 %.not16.i, %14
  br i1 %or.cond17.i, label %find_entry_ptr.exit, label %.lr.ph.i

.lr.ph.i:                                         ; preds = %5
  %15 = getelementptr inbounds nuw i8, ptr %0, i64 16
  br label %16

16:                                               ; preds = %entry_equals.exit.thread.i, %.lr.ph.i
  %17 = phi ptr [ %13, %.lr.ph.i ], [ %26, %entry_equals.exit.thread.i ]
  %.018.i = phi ptr [ %11, %.lr.ph.i ], [ %25, %entry_equals.exit.thread.i ]
  %18 = getelementptr inbounds nuw i8, ptr %17, i64 8
  %19 = load i32, ptr %18, align 8, !tbaa !30
  %20 = load i32, ptr %7, align 8, !tbaa !30
  %21 = icmp eq i32 %19, %20
  br i1 %21, label %entry_equals.exit.i, label %entry_equals.exit.thread.i

entry_equals.exit.i:                              ; preds = %16
  %22 = load ptr, ptr %12, align 8, !tbaa !18
  %23 = load ptr, ptr %15, align 8, !tbaa !19
  %24 = tail call i32 %22(ptr noundef %23, ptr noundef nonnull %17, ptr noundef nonnull %1, ptr noundef %2) #15
  %.not.i.not.i = icmp eq i32 %24, 0
  %.pr = load ptr, ptr %.018.i, align 8, !tbaa !24
  br i1 %.not.i.not.i, label %find_entry_ptr.exit, label %entry_equals.exit.thread.i

entry_equals.exit.thread.i:                       ; preds = %entry_equals.exit.i, %16
  %25 = phi ptr [ %17, %16 ], [ %.pr, %entry_equals.exit.i ]
  %26 = load ptr, ptr %25, align 8, !tbaa !24
  %.not.i = icmp eq ptr %26, null
  %27 = icmp eq ptr %26, %1
  %or.cond.i = or i1 %.not.i, %27
  br i1 %or.cond.i, label %find_entry_ptr.exit, label %16, !llvm.loop !31

find_entry_ptr.exit:                              ; preds = %entry_equals.exit.thread.i, %entry_equals.exit.i, %5
  %28 = phi ptr [ %13, %5 ], [ %26, %entry_equals.exit.thread.i ], [ %.pr, %entry_equals.exit.i ]
  %.0.lcssa.i = phi ptr [ %11, %5 ], [ %25, %entry_equals.exit.thread.i ], [ %.018.i, %entry_equals.exit.i ]
  %.not18 = icmp eq ptr %28, null
  br i1 %.not18, label %63, label %29

29:                                               ; preds = %find_entry_ptr.exit
  %30 = load ptr, ptr %28, align 8, !tbaa !26
  store ptr %30, ptr %.0.lcssa.i, align 8, !tbaa !24
  store ptr null, ptr %28, align 8, !tbaa !26
  %31 = getelementptr inbounds nuw i8, ptr %0, i64 40
  %32 = load i8, ptr %31, align 8
  %33 = and i8 %32, 1
  %.not19 = icmp eq i8 %33, 0
  br i1 %.not19, label %63, label %34

34:                                               ; preds = %29
  %35 = getelementptr inbounds nuw i8, ptr %0, i64 24
  %36 = load i32, ptr %35, align 8, !tbaa !29
  %37 = add i32 %36, -1
  store i32 %37, ptr %35, align 8, !tbaa !29
  %38 = getelementptr inbounds nuw i8, ptr %0, i64 36
  %39 = load i32, ptr %38, align 4, !tbaa !23
  %40 = icmp ult i32 %37, %39
  br i1 %40, label %41, label %63

41:                                               ; preds = %34
  %42 = load i32, ptr %6, align 4, !tbaa !13
  %43 = lshr i32 %42, 2
  %44 = load ptr, ptr %0, align 8, !tbaa !21
  store i32 %43, ptr %6, align 4, !tbaa !13
  %45 = zext nneg i32 %43 to i64
  %46 = tail call ptr @xcalloc(i64 noundef %45, i64 noundef 8) #15
  store ptr %46, ptr %0, align 8, !tbaa !21
  %47 = mul nuw nsw i64 %45, 80
  %48 = udiv i64 %47, 100
  %49 = trunc nuw nsw i64 %48 to i32
  %50 = getelementptr inbounds nuw i8, ptr %0, i64 32
  store i32 %49, ptr %50, align 8, !tbaa !22
  %51 = icmp ult i32 %42, 260
  %52 = udiv i32 %49, 5
  %.sink.i.i = select i1 %51, i32 0, i32 %52
  store i32 %.sink.i.i, ptr %38, align 4, !tbaa !23
  %.not27.i = icmp eq i32 %42, 0
  br i1 %.not27.i, label %rehash.exit, label %.lr.ph25.preheader.i

.lr.ph25.preheader.i:                             ; preds = %41
  %wide.trip.count.i = zext i32 %42 to i64
  br label %.lr.ph25.i

.lr.ph25.i:                                       ; preds = %._crit_edge.i, %.lr.ph25.preheader.i
  %indvars.iv.i = phi i64 [ 0, %.lr.ph25.preheader.i ], [ %indvars.iv.next.i, %._crit_edge.i ]
  %53 = getelementptr inbounds nuw ptr, ptr %44, i64 %indvars.iv.i
  %54 = load ptr, ptr %53, align 8, !tbaa !24
  %.not21.i = icmp eq ptr %54, null
  br i1 %.not21.i, label %._crit_edge.i, label %.lr.ph.i20

.lr.ph.i20:                                       ; preds = %.lr.ph25.i
  %.val.i21 = load i32, ptr %6, align 4, !tbaa !13
  %55 = add i32 %.val.i21, -1
  br label %56

56:                                               ; preds = %56, %.lr.ph.i20
  %.02022.i = phi ptr [ %54, %.lr.ph.i20 ], [ %57, %56 ]
  %57 = load ptr, ptr %.02022.i, align 8, !tbaa !26
  %58 = getelementptr i8, ptr %.02022.i, i64 8
  %.020.val.i = load i32, ptr %58, align 8, !tbaa !30
  %59 = and i32 %.020.val.i, %55
  %60 = zext i32 %59 to i64
  %61 = getelementptr inbounds nuw ptr, ptr %46, i64 %60
  %62 = load ptr, ptr %61, align 8, !tbaa !24
  store ptr %62, ptr %.02022.i, align 8, !tbaa !26
  store ptr %.02022.i, ptr %61, align 8, !tbaa !24
  %.not.i22 = icmp eq ptr %57, null
  br i1 %.not.i22, label %._crit_edge.i, label %56, !llvm.loop !33

._crit_edge.i:                                    ; preds = %56, %.lr.ph25.i
  %indvars.iv.next.i = add nuw nsw i64 %indvars.iv.i, 1
  %exitcond.not.i = icmp eq i64 %indvars.iv.next.i, %wide.trip.count.i
  br i1 %exitcond.not.i, label %rehash.exit, label %.lr.ph25.i, !llvm.loop !34

rehash.exit:                                      ; preds = %._crit_edge.i, %41
  tail call void @free(ptr noundef %44) #15
  br label %63

63:                                               ; preds = %29, %rehash.exit, %34, %find_entry_ptr.exit, %3
  %.0 = phi ptr [ null, %3 ], [ null, %find_entry_ptr.exit ], [ %28, %34 ], [ %28, %rehash.exit ], [ %28, %29 ]
  ret ptr %.0
}